; Function Attrs: null_pointer_is_valid sspstrong uwtable
define internal void @dissect_gtpv2_scef_pdn_connection(ptr noundef %0, ptr noundef %1, ptr readnone captures(none) %2, ptr noundef %3, i16 noundef zeroext %4, i8 noundef zeroext %5, i8 zeroext %6, ptr noundef %7) #1 {
  tail call void (ptr, ptr, ...) @proto_item_append_text(ptr noundef %3, ptr noundef nonnull @.str.1803)
  %9 = load i32, ptr @ett_gtpv2_PDN_conn, align 4
  %10 = tail call ptr @proto_item_add_subtree(ptr noundef %3, i32 noundef %9)
  %11 = zext i16 %4 to i32
  %12 = tail call ptr @tvb_new_subset_length(ptr noundef %0, i32 noundef 0, i32 noundef %11)
  tail call void @dissect_gtpv2_ie_common(ptr noundef %12, ptr noundef %1, ptr noundef %10, i32 noundef 0, i8 noundef zeroext %5, ptr noundef %7, i8 noundef zeroext -61)
  ret void
}